; Function Attrs: mustprogress uwtable
define noundef double @_ZNK8QuantLib18FdmMesherComposite5dplusERKNS_19FdmLinearOpIteratorEm(ptr nocapture noundef nonnull readonly align 8 dereferenceable(48) %this, ptr nocapture noundef nonnull readonly align 8 dereferenceable(56) %iter, i64 noundef %direction) unnamed_addr #0 align 2 {
entry:
  %mesher_ = getelementptr inbounds nuw i8, ptr %this, i64 24
  %0 = load ptr, ptr %mesher_, align 8, !tbaa !10
  %add.ptr.i = getelementptr inbounds nuw %"class.boost::shared_ptr.0", ptr %0, i64 %direction
  %1 = load ptr, ptr %add.ptr.i, align 8, !tbaa !3
  %cmp.not.i = icmp eq ptr %1, null
  br i1 %cmp.not.i, label %cond.false.i, label %_ZNK5boost10shared_ptrIN8QuantLib11Fdm1dMesherEEptEv.exit, !prof !24

cond.false.i:                                     ; preds = %entry
  tail call void @_ZN5boost16assertion_failedEPKcS1_S1_l(ptr noundef nonnull @.str.7, ptr noundef nonnull @__PRETTY_FUNCTION__._ZNK5boost10shared_ptrIN8QuantLib11Fdm1dMesherEEptEv, ptr noundef nonnull @.str.8, i64 noundef 784)
  %.pre.i = load ptr, ptr %add.ptr.i, align 8, !tbaa !3
  br label %_ZNK5boost10shared_ptrIN8QuantLib11Fdm1dMesherEEptEv.exit

_ZNK5boost10shared_ptrIN8QuantLib11Fdm1dMesherEEptEv.exit: ; preds = %entry, %cond.false.i
  %2 = phi ptr [ %1, %entry ], [ %.pre.i, %cond.false.i ]
  %coordinates_.i = getelementptr inbounds nuw i8, ptr %iter, i64 32
  %3 = load ptr, ptr %coordinates_.i, align 8, !tbaa !18
  %add.ptr.i2 = getelementptr inbounds nuw i64, ptr %3, i64 %direction
  %4 = load i64, ptr %add.ptr.i2, align 8, !tbaa !21
  %dplus_.i = getelementptr inbounds nuw i8, ptr %2, i64 32
  %5 = load ptr, ptr %dplus_.i, align 8, !tbaa !27
  %add.ptr.i.i = getelementptr inbounds nuw double, ptr %5, i64 %4
  %6 = load double, ptr %add.ptr.i.i, align 8, !tbaa !41
  ret double %6
}